target datalayout = "e-m:e-p270:32:32-p271:32:32-p272:64:64-i64:64-i128:128-f80:128-n8:16:32:64-S128"
target triple = "x86_64-pc-linux-gnu"

%union.pthread_attr_t = type { i64, [48 x i8] }

@.str.8 = private unnamed_addr constant [22 x i8] c"pthread_attr_init: %m\00", align 1
@.str.9 = private unnamed_addr constant [26 x i8] c"pthread_attr_setscope: %m\00", align 1
@.str.10 = private unnamed_addr constant [30 x i8] c"pthread_attr_setstacksize: %m\00", align 1
@.str.11 = private unnamed_addr constant [28 x i8] c"%s: pthread_create error %m\00", align 1
@.str.12 = private unnamed_addr constant [55 x i8] c"pthread_attr_destroy failed, possible memory leak!: %m\00", align 1
@pending_thread_tid = internal global i64 0, align 8
@.str.20 = private unnamed_addr constant [27 x i8] c"%s: thread already running\00", align 1
@__func__.agent_init = private unnamed_addr constant [11 x i8] c"agent_init\00", align 1
@update_srun_list = internal global ptr null, align 8
@nodes_update_tid = internal global i64 0, align 8
@srun_update_tid = internal global i64 0, align 8

; Function Attrs: nounwind uwtable
define dso_local void @agent_init() #0 {
  %1 = alloca %union.pthread_attr_t, align 8
  %2 = alloca i32, align 4
  %3 = alloca i32, align 4
  %4 = alloca i32, align 4
  %5 = alloca %union.pthread_attr_t, align 8
  %6 = alloca i32, align 4
  %7 = alloca i32, align 4
  %8 = alloca i32, align 4
  %9 = alloca %union.pthread_attr_t, align 8
  %10 = alloca i32, align 4
  %11 = alloca i32, align 4
  %12 = alloca i32, align 4
  %13 = load i64, ptr @pending_thread_tid, align 8
  %14 = icmp ne i64 %13, 0
  br i1 %14, label %15, label %17

15:                                               ; preds = %0
  %16 = call i32 (ptr, ...) @error(ptr noundef @.str.20, ptr noundef @__func__.agent_init)
  br label %156

17:                                               ; preds = %0
  %18 = call ptr @list_create(ptr noundef @xfree_ptr)
  store ptr %18, ptr @update_srun_list, align 8
  br label %19

19:                                               ; preds = %17
  call void @llvm.lifetime.start.p0(i64 56, ptr %1) #10
  call void @llvm.lifetime.start.p0(i64 4, ptr %2) #10
  br label %20

20:                                               ; preds = %19
  call void @llvm.lifetime.start.p0(i64 4, ptr %3) #10
  %21 = call i32 @pthread_attr_init(ptr noundef %1) #10
  store i32 %21, ptr %3, align 4
  %22 = load i32, ptr %3, align 4
  %23 = icmp ne i32 %22, 0
  br i1 %23, label %24, label %27

24:                                               ; preds = %20
  %25 = load i32, ptr %3, align 4
  %26 = call ptr @__errno_location() #11
  store i32 %25, ptr %26, align 4
  call void (ptr, ...) @fatal(ptr noundef @.str.8) #12
  unreachable

27:                                               ; preds = %20
  %28 = call i32 @pthread_attr_setscope(ptr noundef %1, i32 noundef 0) #10
  store i32 %28, ptr %3, align 4
  %29 = load i32, ptr %3, align 4
  %30 = icmp ne i32 %29, 0
  br i1 %30, label %31, label %35

31:                                               ; preds = %27
  %32 = load i32, ptr %3, align 4
  %33 = call ptr @__errno_location() #11
  store i32 %32, ptr %33, align 4
  %34 = call i32 (ptr, ...) @error(ptr noundef @.str.9)
  br label %35

35:                                               ; preds = %31, %27
  %36 = call i32 @pthread_attr_setstacksize(ptr noundef %1, i64 noundef 1048576) #10
  store i32 %36, ptr %3, align 4
  %37 = load i32, ptr %3, align 4
  %38 = icmp ne i32 %37, 0
  br i1 %38, label %39, label %43

39:                                               ; preds = %35
  %40 = load i32, ptr %3, align 4
  %41 = call ptr @__errno_location() #11
  store i32 %40, ptr %41, align 4
  %42 = call i32 (ptr, ...) @error(ptr noundef @.str.10)
  br label %43

43:                                               ; preds = %39, %35
  call void @llvm.lifetime.end.p0(i64 4, ptr %3) #10
  br label %44

44:                                               ; preds = %43
  br label %45

45:                                               ; preds = %44
  %46 = call i32 @pthread_create(ptr noundef @pending_thread_tid, ptr noundef %1, ptr noundef @_agent_init, ptr noundef null) #10
  store i32 %46, ptr %2, align 4
  %47 = load i32, ptr %2, align 4
  %48 = icmp ne i32 %47, 0
  br i1 %48, label %49, label %52

49:                                               ; preds = %45
  %50 = load i32, ptr %2, align 4
  %51 = call ptr @__errno_location() #11
  store i32 %50, ptr %51, align 4
  call void (ptr, ...) @fatal(ptr noundef @.str.11, ptr noundef @__func__.agent_init) #12
  unreachable

52:                                               ; preds = %45
  br label %53

53:                                               ; preds = %52
  call void @llvm.lifetime.start.p0(i64 4, ptr %4) #10
  %54 = call i32 @pthread_attr_destroy(ptr noundef %1) #10
  store i32 %54, ptr %4, align 4
  %55 = load i32, ptr %4, align 4
  %56 = icmp ne i32 %55, 0
  br i1 %56, label %57, label %61

57:                                               ; preds = %53
  %58 = load i32, ptr %4, align 4
  %59 = call ptr @__errno_location() #11
  store i32 %58, ptr %59, align 4
  %60 = call i32 (ptr, ...) @error(ptr noundef @.str.12)
  br label %61

61:                                               ; preds = %57, %53
  call void @llvm.lifetime.end.p0(i64 4, ptr %4) #10
  br label %62

62:                                               ; preds = %61
  br label %63

63:                                               ; preds = %62
  call void @llvm.lifetime.end.p0(i64 4, ptr %2) #10
  call void @llvm.lifetime.end.p0(i64 56, ptr %1) #10
  br label %64

64:                                               ; preds = %63
  br label %65

65:                                               ; preds = %64
  call void @llvm.lifetime.start.p0(i64 56, ptr %5) #10
  call void @llvm.lifetime.start.p0(i64 4, ptr %6) #10
  br label %66

66:                                               ; preds = %65
  call void @llvm.lifetime.start.p0(i64 4, ptr %7) #10
  %67 = call i32 @pthread_attr_init(ptr noundef %5) #10
  store i32 %67, ptr %7, align 4
  %68 = load i32, ptr %7, align 4
  %69 = icmp ne i32 %68, 0
  br i1 %69, label %70, label %73

70:                                               ; preds = %66
  %71 = load i32, ptr %7, align 4
  %72 = call ptr @__errno_location() #11
  store i32 %71, ptr %72, align 4
  call void (ptr, ...) @fatal(ptr noundef @.str.8) #12
  unreachable

73:                                               ; preds = %66
  %74 = call i32 @pthread_attr_setscope(ptr noundef %5, i32 noundef 0) #10
  store i32 %74, ptr %7, align 4
  %75 = load i32, ptr %7, align 4
  %76 = icmp ne i32 %75, 0
  br i1 %76, label %77, label %81

77:                                               ; preds = %73
  %78 = load i32, ptr %7, align 4
  %79 = call ptr @__errno_location() #11
  store i32 %78, ptr %79, align 4
  %80 = call i32 (ptr, ...) @error(ptr noundef @.str.9)
  br label %81

81:                                               ; preds = %77, %73
  %82 = call i32 @pthread_attr_setstacksize(ptr noundef %5, i64 noundef 1048576) #10
  store i32 %82, ptr %7, align 4
  %83 = load i32, ptr %7, align 4
  %84 = icmp ne i32 %83, 0
  br i1 %84, label %85, label %89

85:                                               ; preds = %81
  %86 = load i32, ptr %7, align 4
  %87 = call ptr @__errno_location() #11
  store i32 %86, ptr %87, align 4
  %88 = call i32 (ptr, ...) @error(ptr noundef @.str.10)
  br label %89

89:                                               ; preds = %85, %81
  call void @llvm.lifetime.end.p0(i64 4, ptr %7) #10
  br label %90

90:                                               ; preds = %89
  br label %91

91:                                               ; preds = %90
  %92 = call i32 @pthread_create(ptr noundef @nodes_update_tid, ptr noundef %5, ptr noundef @_agent_nodes_update, ptr noundef null) #10
  store i32 %92, ptr %6, align 4
  %93 = load i32, ptr %6, align 4
  %94 = icmp ne i32 %93, 0
  br i1 %94, label %95, label %98

95:                                               ; preds = %91
  %96 = load i32, ptr %6, align 4
  %97 = call ptr @__errno_location() #11
  store i32 %96, ptr %97, align 4
  call void (ptr, ...) @fatal(ptr noundef @.str.11, ptr noundef @__func__.agent_init) #12
  unreachable

98:                                               ; preds = %91
  br label %99

99:                                               ; preds = %98
  call void @llvm.lifetime.start.p0(i64 4, ptr %8) #10
  %100 = call i32 @pthread_attr_destroy(ptr noundef %5) #10
  store i32 %100, ptr %8, align 4
  %101 = load i32, ptr %8, align 4
  %102 = icmp ne i32 %101, 0
  br i1 %102, label %103, label %107

103:                                              ; preds = %99
  %104 = load i32, ptr %8, align 4
  %105 = call ptr @__errno_location() #11
  store i32 %104, ptr %105, align 4
  %106 = call i32 (ptr, ...) @error(ptr noundef @.str.12)
  br label %107

107:                                              ; preds = %103, %99
  call void @llvm.lifetime.end.p0(i64 4, ptr %8) #10
  br label %108

108:                                              ; preds = %107
  br label %109

109:                                              ; preds = %108
  call void @llvm.lifetime.end.p0(i64 4, ptr %6) #10
  call void @llvm.lifetime.end.p0(i64 56, ptr %5) #10
  br label %110

110:                                              ; preds = %109
  br label %111

111:                                              ; preds = %110
  call void @llvm.lifetime.start.p0(i64 56, ptr %9) #10
  call void @llvm.lifetime.start.p0(i64 4, ptr %10) #10
  br label %112

112:                                              ; preds = %111
  call void @llvm.lifetime.start.p0(i64 4, ptr %11) #10
  %113 = call i32 @pthread_attr_init(ptr noundef %9) #10
  store i32 %113, ptr %11, align 4
  %114 = load i32, ptr %11, align 4
  %115 = icmp ne i32 %114, 0
  br i1 %115, label %116, label %119

116:                                              ; preds = %112
  %117 = load i32, ptr %11, align 4
  %118 = call ptr @__errno_location() #11
  store i32 %117, ptr %118, align 4
  call void (ptr, ...) @fatal(ptr noundef @.str.8) #12
  unreachable

119:                                              ; preds = %112
  %120 = call i32 @pthread_attr_setscope(ptr noundef %9, i32 noundef 0) #10
  store i32 %120, ptr %11, align 4
  %121 = load i32, ptr %11, align 4
  %122 = icmp ne i32 %121, 0
  br i1 %122, label %123, label %127

123:                                              ; preds = %119
  %124 = load i32, ptr %11, align 4
  %125 = call ptr @__errno_location() #11
  store i32 %124, ptr %125, align 4
  %126 = call i32 (ptr, ...) @error(ptr noundef @.str.9)
  br label %127

127:                                              ; preds = %123, %119
  %128 = call i32 @pthread_attr_setstacksize(ptr noundef %9, i64 noundef 1048576) #10
  store i32 %128, ptr %11, align 4
  %129 = load i32, ptr %11, align 4
  %130 = icmp ne i32 %129, 0
  br i1 %130, label %131, label %135

131:                                              ; preds = %127
  %132 = load i32, ptr %11, align 4
  %133 = call ptr @__errno_location() #11
  store i32 %132, ptr %133, align 4
  %134 = call i32 (ptr, ...) @error(ptr noundef @.str.10)
  br label %135

135:                                              ; preds = %131, %127
  call void @llvm.lifetime.end.p0(i64 4, ptr %11) #10
  br label %136

136:                                              ; preds = %135
  br label %137

137:                                              ; preds = %136
  %138 = call i32 @pthread_create(ptr noundef @srun_update_tid, ptr noundef %9, ptr noundef @_agent_srun_update, ptr noundef null) #10
  store i32 %138, ptr %10, align 4
  %139 = load i32, ptr %10, align 4
  %140 = icmp ne i32 %139, 0
  br i1 %140, label %141, label %144

141:                                              ; preds = %137
  %142 = load i32, ptr %10, align 4
  %143 = call ptr @__errno_location() #11
  store i32 %142, ptr %143, align 4
  call void (ptr, ...) @fatal(ptr noundef @.str.11, ptr noundef @__func__.agent_init) #12
  unreachable

144:                                              ; preds = %137
  br label %145

145:                                              ; preds = %144
  call void @llvm.lifetime.start.p0(i64 4, ptr %12) #10
  %146 = call i32 @pthread_attr_destroy(ptr noundef %9) #10
  store i32 %146, ptr %12, align 4
  %147 = load i32, ptr %12, align 4
  %148 = icmp ne i32 %147, 0
  br i1 %148, label %149, label %153

149:                                              ; preds = %145
  %150 = load i32, ptr %12, align 4
  %151 = call ptr @__errno_location() #11
  store i32 %150, ptr %151, align 4
  %152 = call i32 (ptr, ...) @error(ptr noundef @.str.12)
  br label %153

153:                                              ; preds = %149, %145
  call void @llvm.lifetime.end.p0(i64 4, ptr %12) #10
  br label %154

154:                                              ; preds = %153
  br label %155

155:                                              ; preds = %154
  call void @llvm.lifetime.end.p0(i64 4, ptr %10) #10
  call void @llvm.lifetime.end.p0(i64 56, ptr %9) #10
  br label %156

156:                                              ; preds = %15, %155
  ret void
}