; Function Attrs: nounwind uwtable
define dso_local void @agent_init() local_unnamed_addr #0 {
  %1 = alloca %union.pthread_attr_t, align 8
  %2 = alloca %union.pthread_attr_t, align 8
  %3 = alloca %union.pthread_attr_t, align 8
  %4 = load i64, ptr @pending_thread_tid, align 8
  %.not = icmp eq i64 %4, 0
  br i1 %.not, label %7, label %5

5:                                                ; preds = %0
  %6 = tail call i32 (ptr, ...) @error(ptr noundef nonnull @.str.20, ptr noundef nonnull @__func__.agent_init) #14
  br label %78

7:                                                ; preds = %0
  %8 = tail call ptr @list_create(ptr noundef nonnull @xfree_ptr) #14
  store ptr %8, ptr @update_srun_list, align 8
  call void @llvm.lifetime.start.p0(i64 56, ptr nonnull %1) #14
  %9 = call i32 @pthread_attr_init(ptr noundef nonnull %1) #14
  %.not44 = icmp eq i32 %9, 0
  br i1 %.not44, label %12, label %10

10:                                               ; preds = %7
  %11 = tail call ptr @__errno_location() #15
  store i32 %9, ptr %11, align 4
  call void (ptr, ...) @fatal(ptr noundef nonnull @.str.8) #16
  unreachable

12:                                               ; preds = %7
  %13 = call i32 @pthread_attr_setscope(ptr noundef nonnull %1, i32 noundef 0) #14
  %.not45 = icmp eq i32 %13, 0
  br i1 %.not45, label %17, label %14

14:                                               ; preds = %12
  %15 = tail call ptr @__errno_location() #15
  store i32 %13, ptr %15, align 4
  %16 = call i32 (ptr, ...) @error(ptr noundef nonnull @.str.9) #14
  br label %17

17:                                               ; preds = %14, %12
  %18 = call i32 @pthread_attr_setstacksize(ptr noundef nonnull %1, i64 noundef 1048576) #14
  %.not46 = icmp eq i32 %18, 0
  br i1 %.not46, label %22, label %19

19:                                               ; preds = %17
  %20 = tail call ptr @__errno_location() #15
  store i32 %18, ptr %20, align 4
  %21 = call i32 (ptr, ...) @error(ptr noundef nonnull @.str.10) #14
  br label %22

22:                                               ; preds = %19, %17
  %23 = call i32 @pthread_create(ptr noundef nonnull @pending_thread_tid, ptr noundef nonnull %1, ptr noundef nonnull @_agent_init, ptr noundef null) #14
  %.not47 = icmp eq i32 %23, 0
  br i1 %.not47, label %26, label %24

24:                                               ; preds = %22
  %25 = tail call ptr @__errno_location() #15
  store i32 %23, ptr %25, align 4
  call void (ptr, ...) @fatal(ptr noundef nonnull @.str.11, ptr noundef nonnull @__func__.agent_init) #16
  unreachable

26:                                               ; preds = %22
  %27 = call i32 @pthread_attr_destroy(ptr noundef nonnull %1) #14
  %.not48 = icmp eq i32 %27, 0
  br i1 %.not48, label %31, label %28

28:                                               ; preds = %26
  %29 = tail call ptr @__errno_location() #15
  store i32 %27, ptr %29, align 4
  %30 = call i32 (ptr, ...) @error(ptr noundef nonnull @.str.12) #14
  br label %31

31:                                               ; preds = %28, %26
  call void @llvm.lifetime.end.p0(i64 56, ptr nonnull %1) #14
  call void @llvm.lifetime.start.p0(i64 56, ptr nonnull %2) #14
  %32 = call i32 @pthread_attr_init(ptr noundef nonnull %2) #14
  %.not49 = icmp eq i32 %32, 0
  br i1 %.not49, label %35, label %33

33:                                               ; preds = %31
  %34 = tail call ptr @__errno_location() #15
  store i32 %32, ptr %34, align 4
  call void (ptr, ...) @fatal(ptr noundef nonnull @.str.8) #16
  unreachable

35:                                               ; preds = %31
  %36 = call i32 @pthread_attr_setscope(ptr noundef nonnull %2, i32 noundef 0) #14
  %.not50 = icmp eq i32 %36, 0
  br i1 %.not50, label %40, label %37

37:                                               ; preds = %35
  %38 = tail call ptr @__errno_location() #15
  store i32 %36, ptr %38, align 4
  %39 = call i32 (ptr, ...) @error(ptr noundef nonnull @.str.9) #14
  br label %40

40:                                               ; preds = %37, %35
  %41 = call i32 @pthread_attr_setstacksize(ptr noundef nonnull %2, i64 noundef 1048576) #14
  %.not51 = icmp eq i32 %41, 0
  br i1 %.not51, label %45, label %42

42:                                               ; preds = %40
  %43 = tail call ptr @__errno_location() #15
  store i32 %41, ptr %43, align 4
  %44 = call i32 (ptr, ...) @error(ptr noundef nonnull @.str.10) #14
  br label %45

45:                                               ; preds = %42, %40
  %46 = call i32 @pthread_create(ptr noundef nonnull @nodes_update_tid, ptr noundef nonnull %2, ptr noundef nonnull @_agent_nodes_update, ptr noundef null) #14
  %.not52 = icmp eq i32 %46, 0
  br i1 %.not52, label %49, label %47

47:                                               ; preds = %45
  %48 = tail call ptr @__errno_location() #15
  store i32 %46, ptr %48, align 4
  call void (ptr, ...) @fatal(ptr noundef nonnull @.str.11, ptr noundef nonnull @__func__.agent_init) #16
  unreachable

49:                                               ; preds = %45
  %50 = call i32 @pthread_attr_destroy(ptr noundef nonnull %2) #14
  %.not53 = icmp eq i32 %50, 0
  br i1 %.not53, label %54, label %51

51:                                               ; preds = %49
  %52 = tail call ptr @__errno_location() #15
  store i32 %50, ptr %52, align 4
  %53 = call i32 (ptr, ...) @error(ptr noundef nonnull @.str.12) #14
  br label %54

54:                                               ; preds = %51, %49
  call void @llvm.lifetime.end.p0(i64 56, ptr nonnull %2) #14
  call void @llvm.lifetime.start.p0(i64 56, ptr nonnull %3) #14
  %55 = call i32 @pthread_attr_init(ptr noundef nonnull %3) #14
  %.not54 = icmp eq i32 %55, 0
  br i1 %.not54, label %58, label %56

56:                                               ; preds = %54
  %57 = tail call ptr @__errno_location() #15
  store i32 %55, ptr %57, align 4
  call void (ptr, ...) @fatal(ptr noundef nonnull @.str.8) #16
  unreachable

58:                                               ; preds = %54
  %59 = call i32 @pthread_attr_setscope(ptr noundef nonnull %3, i32 noundef 0) #14
  %.not55 = icmp eq i32 %59, 0
  br i1 %.not55, label %63, label %60

60:                                               ; preds = %58
  %61 = tail call ptr @__errno_location() #15
  store i32 %59, ptr %61, align 4
  %62 = call i32 (ptr, ...) @error(ptr noundef nonnull @.str.9) #14
  br label %63

63:                                               ; preds = %60, %58
  %64 = call i32 @pthread_attr_setstacksize(ptr noundef nonnull %3, i64 noundef 1048576) #14
  %.not56 = icmp eq i32 %64, 0
  br i1 %.not56, label %68, label %65

65:                                               ; preds = %63
  %66 = tail call ptr @__errno_location() #15
  store i32 %64, ptr %66, align 4
  %67 = call i32 (ptr, ...) @error(ptr noundef nonnull @.str.10) #14
  br label %68

68:                                               ; preds = %65, %63
  %69 = call i32 @pthread_create(ptr noundef nonnull @srun_update_tid, ptr noundef nonnull %3, ptr noundef nonnull @_agent_srun_update, ptr noundef null) #14
  %.not57 = icmp eq i32 %69, 0
  br i1 %.not57, label %72, label %70

70:                                               ; preds = %68
  %71 = tail call ptr @__errno_location() #15
  store i32 %69, ptr %71, align 4
  call void (ptr, ...) @fatal(ptr noundef nonnull @.str.11, ptr noundef nonnull @__func__.agent_init) #16
  unreachable

72:                                               ; preds = %68
  %73 = call i32 @pthread_attr_destroy(ptr noundef nonnull %3) #14
  %.not58 = icmp eq i32 %73, 0
  br i1 %.not58, label %77, label %74

74:                                               ; preds = %72
  %75 = tail call ptr @__errno_location() #15
  store i32 %73, ptr %75, align 4
  %76 = call i32 (ptr, ...) @error(ptr noundef nonnull @.str.12) #14
  br label %77

77:                                               ; preds = %74, %72
  call void @llvm.lifetime.end.p0(i64 56, ptr nonnull %3) #14
  br label %78

78:                                               ; preds = %77, %5
  ret void
}